target datalayout = "e-m:e-p270:32:32-p271:32:32-p272:64:64-i64:64-i128:128-f80:128-n8:16:32:64-S128"
target triple = "x86_64-pc-linux-gnu"

%"struct.std::__detail::_Hash_node_base" = type { ptr }
%"struct.std::__detail::_Prime_rehash_policy" = type { float, i64 }
%"class.std::unordered_map.315" = type { %"class.std::_Hashtable.316" }
%"class.std::_Hashtable.316" = type { ptr, i64, %"struct.std::__detail::_Hash_node_base", i64, %"struct.std::__detail::_Prime_rehash_policy", ptr }
%"class.std::allocator.360" = type { i8 }

; Function Attrs: mustprogress nounwind uwtable
define linkonce_odr void @_ZNSt15__new_allocatorIPNSt8__detail15_Hash_node_baseEED2Ev(ptr noundef nonnull align 1 dereferenceable(1) %0) unnamed_addr #1 comdat align 2 {
  %2 = alloca ptr, align 8
  store ptr %0, ptr %2, align 8
  ret void
}

; Function Attrs: mustprogress nounwind uwtable
define linkonce_odr void @_ZNSt15__new_allocatorIPNSt8__detail15_Hash_node_baseEE10deallocateEPS2_m(ptr noundef nonnull align 1 dereferenceable(1) %0, ptr noundef %1, i64 noundef %2) #1 comdat align 2 {
  %4 = alloca ptr, align 8
  %5 = alloca ptr, align 8
  %6 = alloca i64, align 8
  store ptr %0, ptr %4, align 8
  store ptr %1, ptr %5, align 8
  store i64 %2, ptr %6, align 8
  %7 = load ptr, ptr %5, align 8
  %8 = load i64, ptr %6, align 8
  %9 = mul i64 %8, 8
  call void @_ZdlPvm(ptr noundef %7, i64 noundef %9) #16
  ret void
}

; Function Attrs: mustprogress nounwind uwtable
define linkonce_odr void @_ZNSt15__new_allocatorIPNSt8__detail15_Hash_node_baseEEC2Ev(ptr noundef nonnull align 1 dereferenceable(1) %0) unnamed_addr #1 comdat align 2 {
  %2 = alloca ptr, align 8
  store ptr %0, ptr %2, align 8
  ret void
}

; Function Attrs: mustprogress nounwind uwtable
define internal noundef nonnull align 1 dereferenceable(1) ptr @_ZNSt8__detail21_Hashtable_ebo_helperILi0ESaINS_10_Hash_nodeISt4pairIKSt10shared_ptrIN32pxrInternal_v0_24__pxrReserved__12_GLOBAL__N_112_SkelAdapterEESt6vectorIdSaIdEEELb0EEEELb1EE6_M_getEv(ptr noundef nonnull align 1 dereferenceable(1) %0) #1 align 2 {
  %2 = alloca ptr, align 8
  store ptr %0, ptr %2, align 8
  %3 = load ptr, ptr %2, align 8
  ret ptr %3
}

; Function Attrs: mustprogress nounwind uwtable
define internal void @_ZNSt15__new_allocatorINSt8__detail10_Hash_nodeISt4pairIKSt10shared_ptrIN32pxrInternal_v0_24__pxrReserved__12_GLOBAL__N_112_SkelAdapterEESt6vectorIdSaIdEEELb0EEEED2Ev(ptr noundef nonnull align 1 dereferenceable(1) %0) unnamed_addr #1 align 2 {
  %2 = alloca ptr, align 8
  store ptr %0, ptr %2, align 8
  ret void
}

; Function Attrs: mustprogress nounwind uwtable
define linkonce_odr void @_ZNSaIPNSt8__detail15_Hash_node_baseEED2Ev(ptr noundef nonnull align 1 dereferenceable(1) %0) unnamed_addr #1 comdat align 2 {
  %2 = alloca ptr, align 8
  store ptr %0, ptr %2, align 8
  %3 = load ptr, ptr %2, align 8
  call void @_ZNSt15__new_allocatorIPNSt8__detail15_Hash_node_baseEED2Ev(ptr noundef nonnull align 1 dereferenceable(1) %3) #11
  ret void
}

; Function Attrs: mustprogress uwtable
define linkonce_odr void @_ZNSt16allocator_traitsISaIPNSt8__detail15_Hash_node_baseEEE10deallocateERS3_PS2_m(ptr noundef nonnull align 1 dereferenceable(1) %0, ptr noundef %1, i64 noundef %2) #0 comdat align 2 {
  %4 = alloca ptr, align 8
  %5 = alloca ptr, align 8
  %6 = alloca i64, align 8
  store ptr %0, ptr %4, align 8
  store ptr %1, ptr %5, align 8
  store i64 %2, ptr %6, align 8
  %7 = load ptr, ptr %4, align 8
  %8 = load ptr, ptr %5, align 8
  %9 = load i64, ptr %6, align 8
  call void @_ZNSt15__new_allocatorIPNSt8__detail15_Hash_node_baseEE10deallocateEPS2_m(ptr noundef nonnull align 1 dereferenceable(1) %7, ptr noundef %8, i64 noundef %9)
  ret void
}

; Function Attrs: mustprogress nounwind uwtable
define internal void @_ZNSaIPNSt8__detail15_Hash_node_baseEEC2INS_10_Hash_nodeISt4pairIKSt10shared_ptrIN32pxrInternal_v0_24__pxrReserved__12_GLOBAL__N_112_SkelAdapterEESt6vectorIdSaIdEEELb0EEEEERKSaIT_E(ptr noundef nonnull align 1 dereferenceable(1) %0, ptr noundef nonnull align 1 dereferenceable(1) %1) unnamed_addr #1 align 2 {
  %3 = alloca ptr, align 8
  %4 = alloca ptr, align 8
  store ptr %0, ptr %3, align 8
  store ptr %1, ptr %4, align 8
  %5 = load ptr, ptr %3, align 8
  call void @_ZNSt15__new_allocatorIPNSt8__detail15_Hash_node_baseEEC2Ev(ptr noundef nonnull align 1 dereferenceable(1) %5) #11
  ret void
}

; Function Attrs: mustprogress uwtable
define internal noundef nonnull align 1 dereferenceable(1) ptr @_ZNSt8__detail16_Hashtable_allocISaINS_10_Hash_nodeISt4pairIKSt10shared_ptrIN32pxrInternal_v0_24__pxrReserved__12_GLOBAL__N_112_SkelAdapterEESt6vectorIdSaIdEEELb0EEEEE17_M_node_allocatorEv(ptr noundef nonnull align 1 dereferenceable(1) %0) #0 align 2 {
  %2 = alloca ptr, align 8
  store ptr %0, ptr %2, align 8
  %3 = load ptr, ptr %2, align 8
  %4 = call noundef nonnull align 1 dereferenceable(1) ptr @_ZNSt8__detail21_Hashtable_ebo_helperILi0ESaINS_10_Hash_nodeISt4pairIKSt10shared_ptrIN32pxrInternal_v0_24__pxrReserved__12_GLOBAL__N_112_SkelAdapterEESt6vectorIdSaIdEEELb0EEEELb1EE6_M_getEv(ptr noundef nonnull align 1 dereferenceable(1) %3)
  ret ptr %4
}

; Function Attrs: mustprogress nounwind uwtable
define linkonce_odr noundef ptr @_ZNSt19__ptr_traits_ptr_toIPPNSt8__detail15_Hash_node_baseES2_Lb0EE10pointer_toERS2_(ptr noundef nonnull align 8 dereferenceable(8) %0) #1 comdat align 2 {
  %2 = alloca ptr, align 8
  store ptr %0, ptr %2, align 8
  %3 = load ptr, ptr %2, align 8
  ret ptr %3
}

; Function Attrs: mustprogress nounwind uwtable
define internal void @_ZNSaINSt8__detail10_Hash_nodeISt4pairIKSt10shared_ptrIN32pxrInternal_v0_24__pxrReserved__12_GLOBAL__N_112_SkelAdapterEESt6vectorIdSaIdEEELb0EEEED2Ev(ptr noundef nonnull align 1 dereferenceable(1) %0) unnamed_addr #1 align 2 {
  %2 = alloca ptr, align 8
  store ptr %0, ptr %2, align 8
  %3 = load ptr, ptr %2, align 8
  call void @_ZNSt15__new_allocatorINSt8__detail10_Hash_nodeISt4pairIKSt10shared_ptrIN32pxrInternal_v0_24__pxrReserved__12_GLOBAL__N_112_SkelAdapterEESt6vectorIdSaIdEEELb0EEEED2Ev(ptr noundef nonnull align 1 dereferenceable(1) %3) #11
  ret void
}

; Function Attrs: mustprogress uwtable
define internal void @_ZNSt8__detail16_Hashtable_allocISaINS_10_Hash_nodeISt4pairIKSt10shared_ptrIN32pxrInternal_v0_24__pxrReserved__12_GLOBAL__N_112_SkelAdapterEESt6vectorIdSaIdEEELb0EEEEE21_M_deallocate_bucketsEPPNS_15_Hash_node_baseEm(ptr noundef nonnull align 1 dereferenceable(1) %0, ptr noundef %1, i64 noundef %2) #0 align 2 personality ptr @__gxx_personality_v0 {
  %4 = alloca ptr, align 8
  %5 = alloca ptr, align 8
  %6 = alloca i64, align 8
  %7 = alloca ptr, align 8
  %8 = alloca %"class.std::allocator.360", align 1
  %9 = alloca ptr, align 8
  %10 = alloca i32, align 4
  store ptr %0, ptr %4, align 8
  store ptr %1, ptr %5, align 8
  store i64 %2, ptr %6, align 8
  %11 = load ptr, ptr %4, align 8
  %12 = load ptr, ptr %5, align 8
  %13 = call noundef ptr @_ZNSt19__ptr_traits_ptr_toIPPNSt8__detail15_Hash_node_baseES2_Lb0EE10pointer_toERS2_(ptr noundef nonnull align 8 dereferenceable(8) %12) #11
  store ptr %13, ptr %7, align 8
  %14 = call noundef nonnull align 1 dereferenceable(1) ptr @_ZNSt8__detail16_Hashtable_allocISaINS_10_Hash_nodeISt4pairIKSt10shared_ptrIN32pxrInternal_v0_24__pxrReserved__12_GLOBAL__N_112_SkelAdapterEESt6vectorIdSaIdEEELb0EEEEE17_M_node_allocatorEv(ptr noundef nonnull align 1 dereferenceable(1) %11)
  call void @_ZNSaIPNSt8__detail15_Hash_node_baseEEC2INS_10_Hash_nodeISt4pairIKSt10shared_ptrIN32pxrInternal_v0_24__pxrReserved__12_GLOBAL__N_112_SkelAdapterEESt6vectorIdSaIdEEELb0EEEEERKSaIT_E(ptr noundef nonnull align 1 dereferenceable(1) %8, ptr noundef nonnull align 1 dereferenceable(1) %14) #11
  %15 = load ptr, ptr %7, align 8
  %16 = load i64, ptr %6, align 8
  invoke void @_ZNSt16allocator_traitsISaIPNSt8__detail15_Hash_node_baseEEE10deallocateERS3_PS2_m(ptr noundef nonnull align 1 dereferenceable(1) %8, ptr noundef %15, i64 noundef %16)
          to label %17 unwind label %18

17:                                               ; preds = %3
  call void @_ZNSaIPNSt8__detail15_Hash_node_baseEED2Ev(ptr noundef nonnull align 1 dereferenceable(1) %8) #11
  ret void

18:                                               ; preds = %3
  %19 = landingpad { ptr, i32 }
          cleanup
  %20 = extractvalue { ptr, i32 } %19, 0
  store ptr %20, ptr %9, align 8
  %21 = extractvalue { ptr, i32 } %19, 1
  store i32 %21, ptr %10, align 4
  call void @_ZNSaIPNSt8__detail15_Hash_node_baseEED2Ev(ptr noundef nonnull align 1 dereferenceable(1) %8) #11
  br label %22

22:                                               ; preds = %18
  %23 = load ptr, ptr %9, align 8
  %24 = load i32, ptr %10, align 4
  %25 = insertvalue { ptr, i32 } poison, ptr %23, 0
  %26 = insertvalue { ptr, i32 } %25, i32 %24, 1
  resume { ptr, i32 } %26
}

; Function Attrs: mustprogress nounwind uwtable
define internal noundef zeroext i1 @_ZNKSt10_HashtableISt10shared_ptrIN32pxrInternal_v0_24__pxrReserved__12_GLOBAL__N_112_SkelAdapterEESt4pairIKS4_St6vectorIdSaIdEEESaISA_ENSt8__detail10_Select1stESt8equal_toIS4_ESt4hashIS4_ENSC_18_Mod_range_hashingENSC_20_Default_ranged_hashENSC_20_Prime_rehash_policyENSC_17_Hashtable_traitsILb0ELb0ELb1EEEE21_M_uses_single_bucketEPPNSC_15_Hash_node_baseE(ptr noundef nonnull align 8 dereferenceable(56) %0, ptr noundef %1) #1 align 2 {
  %3 = alloca ptr, align 8
  %4 = alloca ptr, align 8
  store ptr %0, ptr %3, align 8
  store ptr %1, ptr %4, align 8
  %5 = load ptr, ptr %3, align 8
  %6 = load ptr, ptr %4, align 8
  %7 = getelementptr inbounds nuw %"class.std::_Hashtable.316", ptr %5, i32 0, i32 5
  %8 = icmp eq ptr %6, %7
  ret i1 %8
}

; Function Attrs: mustprogress nounwind uwtable
define internal noundef ptr @_ZNKSt8__detail10_Hash_nodeISt4pairIKSt10shared_ptrIN32pxrInternal_v0_24__pxrReserved__12_GLOBAL__N_112_SkelAdapterEESt6vectorIdSaIdEEELb0EE7_M_nextEv(ptr noundef nonnull align 8 dereferenceable(48) %0) #1 align 2 {
  %2 = alloca ptr, align 8
  store ptr %0, ptr %2, align 8
  %3 = load ptr, ptr %2, align 8
  %4 = getelementptr inbounds nuw %"struct.std::__detail::_Hash_node_base", ptr %3, i32 0, i32 0
  %5 = load ptr, ptr %4, align 8
  ret ptr %5
}

; Function Attrs: mustprogress nounwind uwtable
define internal void @_ZNSt8__detail21_Hashtable_ebo_helperILi0ESaINS_10_Hash_nodeISt4pairIKSt10shared_ptrIN32pxrInternal_v0_24__pxrReserved__12_GLOBAL__N_112_SkelAdapterEESt6vectorIdSaIdEEELb0EEEELb1EED2Ev(ptr noundef nonnull align 1 dereferenceable(1) %0) unnamed_addr #1 align 2 {
  %2 = alloca ptr, align 8
  store ptr %0, ptr %2, align 8
  %3 = load ptr, ptr %2, align 8
  call void @_ZNSaINSt8__detail10_Hash_nodeISt4pairIKSt10shared_ptrIN32pxrInternal_v0_24__pxrReserved__12_GLOBAL__N_112_SkelAdapterEESt6vectorIdSaIdEEELb0EEEED2Ev(ptr noundef nonnull align 1 dereferenceable(1) %3) #11
  ret void
}

; Function Attrs: mustprogress uwtable
define internal void @_ZNSt10_HashtableISt10shared_ptrIN32pxrInternal_v0_24__pxrReserved__12_GLOBAL__N_112_SkelAdapterEESt4pairIKS4_St6vectorIdSaIdEEESaISA_ENSt8__detail10_Select1stESt8equal_toIS4_ESt4hashIS4_ENSC_18_Mod_range_hashingENSC_20_Default_ranged_hashENSC_20_Prime_rehash_policyENSC_17_Hashtable_traitsILb0ELb0ELb1EEEE21_M_deallocate_bucketsEPPNSC_15_Hash_node_baseEm(ptr noundef nonnull align 8 dereferenceable(56) %0, ptr noundef %1, i64 noundef %2) #0 align 2 {
  %4 = alloca ptr, align 8
  %5 = alloca ptr, align 8
  %6 = alloca i64, align 8
  store ptr %0, ptr %4, align 8
  store ptr %1, ptr %5, align 8
  store i64 %2, ptr %6, align 8
  %7 = load ptr, ptr %4, align 8
  %8 = load ptr, ptr %5, align 8
  %9 = call noundef zeroext i1 @_ZNKSt10_HashtableISt10shared_ptrIN32pxrInternal_v0_24__pxrReserved__12_GLOBAL__N_112_SkelAdapterEESt4pairIKS4_St6vectorIdSaIdEEESaISA_ENSt8__detail10_Select1stESt8equal_toIS4_ESt4hashIS4_ENSC_18_Mod_range_hashingENSC_20_Default_ranged_hashENSC_20_Prime_rehash_policyENSC_17_Hashtable_traitsILb0ELb0ELb1EEEE21_M_uses_single_bucketEPPNSC_15_Hash_node_baseE(ptr noundef nonnull align 8 dereferenceable(56) %7, ptr noundef %8)
  br i1 %9, label %10, label %11

10:                                               ; preds = %3
  br label %14

11:                                               ; preds = %3
  %12 = load ptr, ptr %5, align 8
  %13 = load i64, ptr %6, align 8
  call void @_ZNSt8__detail16_Hashtable_allocISaINS_10_Hash_nodeISt4pairIKSt10shared_ptrIN32pxrInternal_v0_24__pxrReserved__12_GLOBAL__N_112_SkelAdapterEESt6vectorIdSaIdEEELb0EEEEE21_M_deallocate_bucketsEPPNS_15_Hash_node_baseEm(ptr noundef nonnull align 1 dereferenceable(1) %7, ptr noundef %12, i64 noundef %13)
  br label %14

14:                                               ; preds = %11, %10
  ret void
}

; Function Attrs: mustprogress uwtable
define internal void @_ZNSt8__detail16_Hashtable_allocISaINS_10_Hash_nodeISt4pairIKSt10shared_ptrIN32pxrInternal_v0_24__pxrReserved__12_GLOBAL__N_112_SkelAdapterEESt6vectorIdSaIdEEELb0EEEEE19_M_deallocate_nodesEPSD_(ptr noundef nonnull align 1 dereferenceable(1) %0, ptr noundef %1) #0 align 2 {
  %3 = alloca ptr, align 8
  %4 = alloca ptr, align 8
  %5 = alloca ptr, align 8
  store ptr %0, ptr %3, align 8
  store ptr %1, ptr %4, align 8
  %6 = load ptr, ptr %3, align 8
  br label %7

7:                                                ; preds = %10, %2
  %8 = load ptr, ptr %4, align 8
  %9 = icmp ne ptr %8, null
  br i1 %9, label %10, label %15

10:                                               ; preds = %7
  %11 = load ptr, ptr %4, align 8
  store ptr %11, ptr %5, align 8
  %12 = load ptr, ptr %4, align 8
  %13 = call noundef ptr @_ZNKSt8__detail10_Hash_nodeISt4pairIKSt10shared_ptrIN32pxrInternal_v0_24__pxrReserved__12_GLOBAL__N_112_SkelAdapterEESt6vectorIdSaIdEEELb0EE7_M_nextEv(ptr noundef nonnull align 8 dereferenceable(48) %12) #11
  store ptr %13, ptr %4, align 8
  %14 = load ptr, ptr %5, align 8
  call void @_ZNSt8__detail16_Hashtable_allocISaINS_10_Hash_nodeISt4pairIKSt10shared_ptrIN32pxrInternal_v0_24__pxrReserved__12_GLOBAL__N_112_SkelAdapterEESt6vectorIdSaIdEEELb0EEEEE18_M_deallocate_nodeEPSD_(ptr noundef nonnull align 1 dereferenceable(1) %6, ptr noundef %14)
  br label %7, !llvm.loop !73

15:                                               ; preds = %7
  ret void
}

; Function Attrs: mustprogress nounwind uwtable
define internal noundef ptr @_ZNKSt10_HashtableISt10shared_ptrIN32pxrInternal_v0_24__pxrReserved__12_GLOBAL__N_112_SkelAdapterEESt4pairIKS4_St6vectorIdSaIdEEESaISA_ENSt8__detail10_Select1stESt8equal_toIS4_ESt4hashIS4_ENSC_18_Mod_range_hashingENSC_20_Default_ranged_hashENSC_20_Prime_rehash_policyENSC_17_Hashtable_traitsILb0ELb0ELb1EEEE8_M_beginEv(ptr noundef nonnull align 8 dereferenceable(56) %0) #1 align 2 {
  %2 = alloca ptr, align 8
  store ptr %0, ptr %2, align 8
  %3 = load ptr, ptr %2, align 8
  %4 = getelementptr inbounds nuw %"class.std::_Hashtable.316", ptr %3, i32 0, i32 2
  %5 = getelementptr inbounds nuw %"struct.std::__detail::_Hash_node_base", ptr %4, i32 0, i32 0
  %6 = load ptr, ptr %5, align 8
  ret ptr %6
}

; Function Attrs: mustprogress nounwind uwtable
define internal void @_ZNSt8__detail16_Hashtable_allocISaINS_10_Hash_nodeISt4pairIKSt10shared_ptrIN32pxrInternal_v0_24__pxrReserved__12_GLOBAL__N_112_SkelAdapterEESt6vectorIdSaIdEEELb0EEEEED2Ev(ptr noundef nonnull align 1 dereferenceable(1) %0) unnamed_addr #1 align 2 {
  %2 = alloca ptr, align 8
  store ptr %0, ptr %2, align 8
  %3 = load ptr, ptr %2, align 8
  call void @_ZNSt8__detail21_Hashtable_ebo_helperILi0ESaINS_10_Hash_nodeISt4pairIKSt10shared_ptrIN32pxrInternal_v0_24__pxrReserved__12_GLOBAL__N_112_SkelAdapterEESt6vectorIdSaIdEEELb0EEEELb1EED2Ev(ptr noundef nonnull align 1 dereferenceable(1) %3) #11
  ret void
}

; Function Attrs: mustprogress uwtable
define internal void @_ZNSt10_HashtableISt10shared_ptrIN32pxrInternal_v0_24__pxrReserved__12_GLOBAL__N_112_SkelAdapterEESt4pairIKS4_St6vectorIdSaIdEEESaISA_ENSt8__detail10_Select1stESt8equal_toIS4_ESt4hashIS4_ENSC_18_Mod_range_hashingENSC_20_Default_ranged_hashENSC_20_Prime_rehash_policyENSC_17_Hashtable_traitsILb0ELb0ELb1EEEE21_M_deallocate_bucketsEv(ptr noundef nonnull align 8 dereferenceable(56) %0) #0 align 2 {
  %2 = alloca ptr, align 8
  store ptr %0, ptr %2, align 8
  %3 = load ptr, ptr %2, align 8
  %4 = getelementptr inbounds nuw %"class.std::_Hashtable.316", ptr %3, i32 0, i32 0
  %5 = load ptr, ptr %4, align 8
  %6 = getelementptr inbounds nuw %"class.std::_Hashtable.316", ptr %3, i32 0, i32 1
  %7 = load i64, ptr %6, align 8
  call void @_ZNSt10_HashtableISt10shared_ptrIN32pxrInternal_v0_24__pxrReserved__12_GLOBAL__N_112_SkelAdapterEESt4pairIKS4_St6vectorIdSaIdEEESaISA_ENSt8__detail10_Select1stESt8equal_toIS4_ESt4hashIS4_ENSC_18_Mod_range_hashingENSC_20_Default_ranged_hashENSC_20_Prime_rehash_policyENSC_17_Hashtable_traitsILb0ELb0ELb1EEEE21_M_deallocate_bucketsEPPNSC_15_Hash_node_baseEm(ptr noundef nonnull align 8 dereferenceable(56) %3, ptr noundef %5, i64 noundef %7)
  ret void
}

; Function Attrs: mustprogress nounwind uwtable
define internal void @_ZNSt10_HashtableISt10shared_ptrIN32pxrInternal_v0_24__pxrReserved__12_GLOBAL__N_112_SkelAdapterEESt4pairIKS4_St6vectorIdSaIdEEESaISA_ENSt8__detail10_Select1stESt8equal_toIS4_ESt4hashIS4_ENSC_18_Mod_range_hashingENSC_20_Default_ranged_hashENSC_20_Prime_rehash_policyENSC_17_Hashtable_traitsILb0ELb0ELb1EEEE5clearEv(ptr noundef nonnull align 8 dereferenceable(56) %0) #1 align 2 personality ptr @__gxx_personality_v0 {
  %2 = alloca ptr, align 8
  store ptr %0, ptr %2, align 8
  %3 = load ptr, ptr %2, align 8
  %4 = call noundef ptr @_ZNKSt10_HashtableISt10shared_ptrIN32pxrInternal_v0_24__pxrReserved__12_GLOBAL__N_112_SkelAdapterEESt4pairIKS4_St6vectorIdSaIdEEESaISA_ENSt8__detail10_Select1stESt8equal_toIS4_ESt4hashIS4_ENSC_18_Mod_range_hashingENSC_20_Default_ranged_hashENSC_20_Prime_rehash_policyENSC_17_Hashtable_traitsILb0ELb0ELb1EEEE8_M_beginEv(ptr noundef nonnull align 8 dereferenceable(56) %3)
  invoke void @_ZNSt8__detail16_Hashtable_allocISaINS_10_Hash_nodeISt4pairIKSt10shared_ptrIN32pxrInternal_v0_24__pxrReserved__12_GLOBAL__N_112_SkelAdapterEESt6vectorIdSaIdEEELb0EEEEE19_M_deallocate_nodesEPSD_(ptr noundef nonnull align 1 dereferenceable(1) %3, ptr noundef %4)
          to label %5 unwind label %14

5:                                                ; preds = %1
  %6 = getelementptr inbounds nuw %"class.std::_Hashtable.316", ptr %3, i32 0, i32 0
  %7 = load ptr, ptr %6, align 8
  %8 = getelementptr inbounds nuw %"class.std::_Hashtable.316", ptr %3, i32 0, i32 1
  %9 = load i64, ptr %8, align 8
  %10 = mul i64 %9, 8
  call void @llvm.memset.p0.i64(ptr align 8 %7, i8 0, i64 %10, i1 false)
  %11 = getelementptr inbounds nuw %"class.std::_Hashtable.316", ptr %3, i32 0, i32 3
  store i64 0, ptr %11, align 8
  %12 = getelementptr inbounds nuw %"class.std::_Hashtable.316", ptr %3, i32 0, i32 2
  %13 = getelementptr inbounds nuw %"struct.std::__detail::_Hash_node_base", ptr %12, i32 0, i32 0
  store ptr null, ptr %13, align 8
  ret void

14:                                               ; preds = %1
  %15 = landingpad { ptr, i32 }
          catch ptr null
  %16 = extractvalue { ptr, i32 } %15, 0
  call void @__clang_call_terminate(ptr %16) #17
  unreachable
}

; Function Attrs: mustprogress nounwind uwtable
define internal void @_ZNSt10_HashtableISt10shared_ptrIN32pxrInternal_v0_24__pxrReserved__12_GLOBAL__N_112_SkelAdapterEESt4pairIKS4_St6vectorIdSaIdEEESaISA_ENSt8__detail10_Select1stESt8equal_toIS4_ESt4hashIS4_ENSC_18_Mod_range_hashingENSC_20_Default_ranged_hashENSC_20_Prime_rehash_policyENSC_17_Hashtable_traitsILb0ELb0ELb1EEEED2Ev(ptr noundef nonnull align 8 dereferenceable(56) %0) unnamed_addr #1 align 2 personality ptr @__gxx_personality_v0 {
  %2 = alloca ptr, align 8
  store ptr %0, ptr %2, align 8
  %3 = load ptr, ptr %2, align 8
  call void @_ZNSt10_HashtableISt10shared_ptrIN32pxrInternal_v0_24__pxrReserved__12_GLOBAL__N_112_SkelAdapterEESt4pairIKS4_St6vectorIdSaIdEEESaISA_ENSt8__detail10_Select1stESt8equal_toIS4_ESt4hashIS4_ENSC_18_Mod_range_hashingENSC_20_Default_ranged_hashENSC_20_Prime_rehash_policyENSC_17_Hashtable_traitsILb0ELb0ELb1EEEE5clearEv(ptr noundef nonnull align 8 dereferenceable(56) %3) #11
  invoke void @_ZNSt10_HashtableISt10shared_ptrIN32pxrInternal_v0_24__pxrReserved__12_GLOBAL__N_112_SkelAdapterEESt4pairIKS4_St6vectorIdSaIdEEESaISA_ENSt8__detail10_Select1stESt8equal_toIS4_ESt4hashIS4_ENSC_18_Mod_range_hashingENSC_20_Default_ranged_hashENSC_20_Prime_rehash_policyENSC_17_Hashtable_traitsILb0ELb0ELb1EEEE21_M_deallocate_bucketsEv(ptr noundef nonnull align 8 dereferenceable(56) %3)
          to label %4 unwind label %5

4:                                                ; preds = %1
  call void @_ZNSt8__detail16_Hashtable_allocISaINS_10_Hash_nodeISt4pairIKSt10shared_ptrIN32pxrInternal_v0_24__pxrReserved__12_GLOBAL__N_112_SkelAdapterEESt6vectorIdSaIdEEELb0EEEEED2Ev(ptr noundef nonnull align 1 dereferenceable(1) %3) #11
  ret void

5:                                                ; preds = %1
  %6 = landingpad { ptr, i32 }
          catch ptr null
  %7 = extractvalue { ptr, i32 } %6, 0
  call void @__clang_call_terminate(ptr %7) #17
  unreachable
}

; Function Attrs: mustprogress nounwind uwtable
define internal void @_ZNSt13unordered_mapISt10shared_ptrIN32pxrInternal_v0_24__pxrReserved__12_GLOBAL__N_112_SkelAdapterEESt6vectorIdSaIdEESt4hashIS4_ESt8equal_toIS4_ESaISt4pairIKS4_S7_EEED2Ev(ptr noundef nonnull align 8 dereferenceable(56) %0) unnamed_addr #1 align 2 {
  %2 = alloca ptr, align 8
  store ptr %0, ptr %2, align 8
  %3 = load ptr, ptr %2, align 8
  %4 = getelementptr inbounds nuw %"class.std::unordered_map.315", ptr %3, i32 0, i32 0
  call void @_ZNSt10_HashtableISt10shared_ptrIN32pxrInternal_v0_24__pxrReserved__12_GLOBAL__N_112_SkelAdapterEESt4pairIKS4_St6vectorIdSaIdEEESaISA_ENSt8__detail10_Select1stESt8equal_toIS4_ESt4hashIS4_ENSC_18_Mod_range_hashingENSC_20_Default_ranged_hashENSC_20_Prime_rehash_policyENSC_17_Hashtable_traitsILb0ELb0ELb1EEEED2Ev(ptr noundef nonnull align 8 dereferenceable(56) %4) #11
  ret void
}